; ModuleID = '16/1256.c'
source_filename = "16/1256.c"
target datalayout = "e-m:e-p270:32:32-p271:32:32-p272:64:64-i64:64-f80:128-n8:16:32:64-S128"
target triple = "x86_64-pc-linux-gnu"

@.str = private unnamed_addr constant [3 x i8] c"%d\00", align 1
@.str.1 = private unnamed_addr constant [9 x i8] c"%d%d%d%d\00", align 1
@.str.2 = private unnamed_addr constant [7 x i8] c"%d%d%d\00", align 1
@.str.3 = private unnamed_addr constant [5 x i8] c"%d%d\00", align 1

; Function Attrs: noinline nounwind uwtable
define dso_local i32 @main() #0 {
  %1 = alloca i32, align 4
  %2 = alloca i32, align 4
  %3 = alloca i32, align 4
  %4 = alloca i32, align 4
  %5 = alloca i32, align 4
  %6 = alloca i32, align 4
  %7 = alloca i32, align 4
  store i32 0, i32* %1, align 4
  %8 = call i32 (i8*, ...) @__isoc99_scanf(i8* getelementptr inbounds ([3 x i8], [3 x i8]* @.str, i64 0, i64 0), i32* %2)
  %9 = load i32, i32* %2, align 4
  %10 = icmp sgt i32 %9, 999
  br i1 %10, label %11, label %42

11:                                               ; preds = %0
  %12 = load i32, i32* %2, align 4
  %13 = sdiv i32 %12, 1000
  store i32 %13, i32* %4, align 4
  %14 = load i32, i32* %2, align 4
  %15 = sdiv i32 %14, 100
  %16 = load i32, i32* %4, align 4
  %17 = mul nsw i32 10, %16
  %18 = sub nsw i32 %15, %17
  store i32 %18, i32* %5, align 4
  %19 = load i32, i32* %2, align 4
  %20 = sdiv i32 %19, 10
  %21 = load i32, i32* %4, align 4
  %22 = mul nsw i32 100, %21
  %23 = sub nsw i32 %20, %22
  %24 = load i32, i32* %5, align 4
  %25 = mul nsw i32 10, %24
  %26 = sub nsw i32 %23, %25
  store i32 %26, i32* %6, align 4
  %27 = load i32, i32* %2, align 4
  %28 = load i32, i32* %4, align 4
  %29 = mul nsw i32 1000, %28
  %30 = sub nsw i32 %27, %29
  %31 = load i32, i32* %5, align 4
  %32 = mul nsw i32 100, %31
  %33 = sub nsw i32 %30, %32
  %34 = load i32, i32* %6, align 4
  %35 = mul nsw i32 10, %34
  %36 = sub nsw i32 %33, %35
  store i32 %36, i32* %7, align 4
  %37 = load i32, i32* %7, align 4
  %38 = load i32, i32* %6, align 4
  %39 = load i32, i32* %5, align 4
  %40 = load i32, i32* %4, align 4
  %41 = call i32 (i8*, ...) @printf(i8* getelementptr inbounds ([9 x i8], [9 x i8]* @.str.1, i64 0, i64 0), i32 %37, i32 %38, i32 %39, i32 %40)
  br label %82

42:                                               ; preds = %0
  %43 = load i32, i32* %2, align 4
  %44 = icmp sgt i32 %43, 99
  br i1 %44, label %45, label %64

45:                                               ; preds = %42
  %46 = load i32, i32* %2, align 4
  %47 = sdiv i32 %46, 100
  store i32 %47, i32* %5, align 4
  %48 = load i32, i32* %2, align 4
  %49 = sdiv i32 %48, 10
  %50 = load i32, i32* %5, align 4
  %51 = mul nsw i32 10, %50
  %52 = sub nsw i32 %49, %51
  store i32 %52, i32* %6, align 4
  %53 = load i32, i32* %2, align 4
  %54 = load i32, i32* %5, align 4
  %55 = mul nsw i32 100, %54
  %56 = sub nsw i32 %53, %55
  %57 = load i32, i32* %6, align 4
  %58 = mul nsw i32 10, %57
  %59 = sub nsw i32 %56, %58
  store i32 %59, i32* %7, align 4
  %60 = load i32, i32* %7, align 4
  %61 = load i32, i32* %6, align 4
  %62 = load i32, i32* %5, align 4
  %63 = call i32 (i8*, ...) @printf(i8* getelementptr inbounds ([7 x i8], [7 x i8]* @.str.2, i64 0, i64 0), i32 %60, i32 %61, i32 %62)
  br label %81

64:                                               ; preds = %42
  %65 = load i32, i32* %2, align 4
  %66 = icmp sgt i32 %65, 9
  br i1 %66, label %67, label %77

67:                                               ; preds = %64
  %68 = load i32, i32* %2, align 4
  %69 = sdiv i32 %68, 10
  store i32 %69, i32* %6, align 4
  %70 = load i32, i32* %2, align 4
  %71 = load i32, i32* %6, align 4
  %72 = mul nsw i32 10, %71
  %73 = sub nsw i32 %70, %72
  store i32 %73, i32* %7, align 4
  %74 = load i32, i32* %7, align 4
  %75 = load i32, i32* %6, align 4
  %76 = call i32 (i8*, ...) @printf(i8* getelementptr inbounds ([5 x i8], [5 x i8]* @.str.3, i64 0, i64 0), i32 %74, i32 %75)
  br label %80

77:                                               ; preds = %64
  %78 = load i32, i32* %2, align 4
  %79 = call i32 (i8*, ...) @printf(i8* getelementptr inbounds ([3 x i8], [3 x i8]* @.str, i64 0, i64 0), i32 %78)
  br label %80

80:                                               ; preds = %77, %67
  br label %81

81:                                               ; preds = %80, %45
  br label %82

82:                                               ; preds = %81, %11
  %83 = load i32, i32* %1, align 4
  ret i32 %83
}

declare dso_local i32 @__isoc99_scanf(i8*, ...) #1

declare dso_local i32 @printf(i8*, ...) #1


!llvm.module.flags = !{!0}
!llvm.ident = !{!1}

!0 = !{i32 1, !"wchar_size", i32 4}
!1 = !{!"clang version 10.0.0-4ubuntu1 "}
