; ModuleID = 'source-C-CXX/15/1256.c'
source_filename = "source-C-CXX/15/1256.c"
target datalayout = "e-m:e-p270:32:32-p271:32:32-p272:64:64-i64:64-f80:128-n8:16:32:64-S128"
target triple = "x86_64-pc-linux-gnu"

@.str = private unnamed_addr constant [3 x i8] c"%d\00", align 1
@.str.1 = private unnamed_addr constant [9 x i8] c"%d%d%d%d\00", align 1
@.str.2 = private unnamed_addr constant [7 x i8] c"%d%d%d\00", align 1
@.str.3 = private unnamed_addr constant [5 x i8] c"%d%d\00", align 1

; Function Attrs: nofree nounwind sspstrong uwtable
define dso_local i32 @main() local_unnamed_addr #0 {
  %1 = alloca i32, align 4
  %2 = bitcast i32* %1 to i8*
  call void @llvm.lifetime.start.p0i8(i64 4, i8* nonnull %2) #3
  %3 = call i32 (i8*, ...) @__isoc99_scanf(i8* getelementptr inbounds ([3 x i8], [3 x i8]* @.str, i64 0, i64 0), i32* nonnull %1)
  %4 = load i32, i32* %1, align 4, !tbaa !5
  %5 = icmp sgt i32 %4, 999
  br i1 %5, label %6, label %23

6:                                                ; preds = %0
  %7 = udiv i32 %4, 1000
  %8 = udiv i32 %4, 100
  %9 = mul nsw i32 %7, -10
  %10 = add nsw i32 %9, %8
  %11 = udiv i32 %4, 10
  %12 = mul nsw i32 %7, -100
  %13 = add nsw i32 %12, %11
  %14 = mul nsw i32 %10, -10
  %15 = add nsw i32 %13, %14
  %16 = mul nsw i32 %7, -1000
  %17 = add nsw i32 %16, %4
  %18 = mul nsw i32 %10, -100
  %19 = add i32 %17, %18
  %20 = mul i32 %15, -10
  %21 = add i32 %19, %20
  %22 = call i32 (i8*, ...) @printf(i8* nonnull dereferenceable(1) getelementptr inbounds ([9 x i8], [9 x i8]* @.str.1, i64 0, i64 0), i32 %21, i32 %15, i32 %10, i32 %7)
  br label %49

23:                                               ; preds = %0
  %24 = icmp sgt i32 %4, 99
  br i1 %24, label %25, label %38

25:                                               ; preds = %23
  %26 = trunc i32 %4 to i16
  %27 = udiv i16 %26, 100
  %28 = zext i16 %27 to i32
  %29 = udiv i16 %26, 10
  %30 = zext i16 %29 to i32
  %31 = mul nsw i32 %28, -10
  %32 = add nsw i32 %31, %30
  %33 = mul nsw i32 %28, -100
  %34 = add nsw i32 %33, %4
  %35 = mul nsw i32 %32, -10
  %36 = add nsw i32 %34, %35
  %37 = call i32 (i8*, ...) @printf(i8* nonnull dereferenceable(1) getelementptr inbounds ([7 x i8], [7 x i8]* @.str.2, i64 0, i64 0), i32 %36, i32 %32, i32 %28)
  br label %49

38:                                               ; preds = %23
  %39 = icmp sgt i32 %4, 9
  br i1 %39, label %40, label %47

40:                                               ; preds = %38
  %41 = trunc i32 %4 to i8
  %42 = udiv i8 %41, 10
  %43 = zext i8 %42 to i32
  %44 = mul nsw i32 %43, -10
  %45 = add nsw i32 %44, %4
  %46 = call i32 (i8*, ...) @printf(i8* nonnull dereferenceable(1) getelementptr inbounds ([5 x i8], [5 x i8]* @.str.3, i64 0, i64 0), i32 %45, i32 %43)
  br label %49

47:                                               ; preds = %38
  %48 = call i32 (i8*, ...) @printf(i8* nonnull dereferenceable(1) getelementptr inbounds ([3 x i8], [3 x i8]* @.str, i64 0, i64 0), i32 %4)
  br label %49

49:                                               ; preds = %25, %47, %40, %6
  call void @llvm.lifetime.end.p0i8(i64 4, i8* nonnull %2) #3
  ret i32 0
}

; Function Attrs: argmemonly mustprogress nofree nosync nounwind willreturn
declare void @llvm.lifetime.start.p0i8(i64 immarg, i8* nocapture) #1

; Function Attrs: nofree nounwind
declare noundef i32 @__isoc99_scanf(i8* nocapture noundef readonly, ...) local_unnamed_addr #2

; Function Attrs: nofree nounwind
declare noundef i32 @printf(i8* nocapture noundef readonly, ...) local_unnamed_addr #2

; Function Attrs: argmemonly mustprogress nofree nosync nounwind willreturn
declare void @llvm.lifetime.end.p0i8(i64 immarg, i8* nocapture) #1


!llvm.module.flags = !{!0, !1, !2, !3}
!llvm.ident = !{!4}

!0 = !{i32 1, !"wchar_size", i32 4}
!1 = !{i32 7, !"PIC Level", i32 2}
!2 = !{i32 7, !"PIE Level", i32 2}
!3 = !{i32 7, !"uwtable", i32 1}
!4 = !{!"clang version 13.0.0"}
!5 = !{!6, !6, i64 0}
!6 = !{!"int", !7, i64 0}
!7 = !{!"omnipotent char", !8, i64 0}
!8 = !{!"Simple C/C++ TBAA"}
